target datalayout = "e-m:e-p270:32:32-p271:32:32-p272:64:64-i64:64-i128:128-f80:128-n8:16:32:64-S128"
target triple = "x86_64-pc-linux-gnu"

@current_log_level = internal global i32 0, align 4
@.str.54 = private unnamed_addr constant [3 x i8] c"-o\00", align 1
@.str.55 = private unnamed_addr constant [19 x i8] c"console.log.level:\00", align 1
@.str.56 = private unnamed_addr constant [21 x i8] c"-oconsole.log.level:\00", align 1
@.str.57 = private unnamed_addr constant [91 x i8] c"Option 'console.log.level' is deprecated, consult '--help' for diagnostic message options.\00", align 1
@.str.58 = private unnamed_addr constant [45 x i8] c"Missing value to 'console.log.level' option.\00", align 1
@.str.59 = private unnamed_addr constant [34 x i8] c"%s is not a valid decimal number.\00", align 1
@.str.60 = private unnamed_addr constant [34 x i8] c"Value %s is not a valid log mask.\00", align 1

; Function Attrs: nounwind null_pointer_is_valid sspstrong uwtable
define i32 @ws_log_set_level(i32 noundef %0) #0 {
  %2 = alloca i32, align 4
  %3 = alloca i32, align 4
  store i32 %0, ptr %3, align 4
  %4 = load i32, ptr %3, align 4
  %5 = icmp ule i32 %4, 0
  br i1 %5, label %9, label %6

6:                                                ; preds = %1
  %7 = load i32, ptr %3, align 4
  %8 = icmp uge i32 %7, 9
  br i1 %8, label %9, label %10

9:                                                ; preds = %6, %1
  store i32 0, ptr %2, align 4
  br label %17

10:                                               ; preds = %6
  %11 = load i32, ptr %3, align 4
  %12 = icmp ugt i32 %11, 6
  br i1 %12, label %13, label %14

13:                                               ; preds = %10
  store i32 6, ptr %3, align 4
  br label %14

14:                                               ; preds = %13, %10
  %15 = load i32, ptr %3, align 4
  store i32 %15, ptr @current_log_level, align 4
  %16 = load i32, ptr @current_log_level, align 4
  store i32 %16, ptr %2, align 4
  br label %17

17:                                               ; preds = %14, %9
  %18 = load i32, ptr %2, align 4
  ret i32 %18
}

; Function Attrs: null_pointer_is_valid sspstrong uwtable
define internal void @parse_console_compat_option(ptr noundef %0, ptr noundef %1, i32 noundef %2) #1 {
  %4 = alloca ptr, align 8
  %5 = alloca ptr, align 8
  %6 = alloca i32, align 4
  %7 = alloca ptr, align 8
  %8 = alloca i32, align 4
  %9 = alloca i32, align 4
  %10 = alloca i32, align 4
  store ptr %0, ptr %4, align 8
  store ptr %1, ptr %5, align 8
  store i32 %2, ptr %6, align 4
  call void @llvm.lifetime.start.p0(i64 8, ptr %7) #19
  call void @llvm.lifetime.start.p0(i64 4, ptr %8) #19
  call void @llvm.lifetime.start.p0(i64 4, ptr %9) #19
  %11 = load ptr, ptr %4, align 8
  %12 = getelementptr ptr, ptr %11, i64 0
  %13 = load ptr, ptr %12, align 8
  %14 = icmp eq ptr %13, null
  br i1 %14, label %15, label %16

15:                                               ; preds = %3
  store i32 1, ptr %10, align 4
  br label %114

16:                                               ; preds = %3
  %17 = load ptr, ptr %4, align 8
  %18 = getelementptr ptr, ptr %17, i64 0
  %19 = load ptr, ptr %18, align 8
  %20 = call i32 @strcmp(ptr noundef %19, ptr noundef @.str.54) #20
  %21 = icmp eq i32 %20, 0
  br i1 %21, label %22, label %39

22:                                               ; preds = %16
  %23 = load ptr, ptr %4, align 8
  %24 = getelementptr ptr, ptr %23, i64 1
  %25 = load ptr, ptr %24, align 8
  %26 = icmp eq ptr %25, null
  br i1 %26, label %33, label %27

27:                                               ; preds = %22
  %28 = load ptr, ptr %4, align 8
  %29 = getelementptr ptr, ptr %28, i64 1
  %30 = load ptr, ptr %29, align 8
  %31 = call i32 @g_str_has_prefix(ptr noundef %30, ptr noundef @.str.55)
  %32 = icmp ne i32 %31, 0
  br i1 %32, label %34, label %33

33:                                               ; preds = %27, %22
  store i32 1, ptr %10, align 4
  br label %114

34:                                               ; preds = %27
  %35 = load ptr, ptr %4, align 8
  %36 = getelementptr ptr, ptr %35, i64 1
  %37 = load ptr, ptr %36, align 8
  %38 = getelementptr i8, ptr %37, i64 18
  store ptr %38, ptr %7, align 8
  br label %52

39:                                               ; preds = %16
  %40 = load ptr, ptr %4, align 8
  %41 = getelementptr ptr, ptr %40, i64 0
  %42 = load ptr, ptr %41, align 8
  %43 = call i32 @g_str_has_prefix(ptr noundef %42, ptr noundef @.str.56)
  %44 = icmp ne i32 %43, 0
  br i1 %44, label %45, label %50

45:                                               ; preds = %39
  %46 = load ptr, ptr %4, align 8
  %47 = getelementptr ptr, ptr %46, i64 0
  %48 = load ptr, ptr %47, align 8
  %49 = getelementptr i8, ptr %48, i64 20
  store ptr %49, ptr %7, align 8
  br label %51

50:                                               ; preds = %39
  store i32 1, ptr %10, align 4
  br label %114

51:                                               ; preds = %45
  br label %52

52:                                               ; preds = %51, %34
  %53 = load ptr, ptr %5, align 8
  call void (ptr, i32, ptr, ...) @print_err(ptr noundef %53, i32 noundef -1, ptr noundef @.str.57)
  %54 = load ptr, ptr %7, align 8
  %55 = load i8, ptr %54, align 1
  %56 = sext i8 %55 to i32
  %57 = icmp eq i32 %56, 0
  br i1 %57, label %58, label %61

58:                                               ; preds = %52
  %59 = load ptr, ptr %5, align 8
  %60 = load i32, ptr %6, align 4
  call void (ptr, i32, ptr, ...) @print_err(ptr noundef %59, i32 noundef %60, ptr noundef @.str.58)
  store i32 1, ptr %10, align 4
  br label %114

61:                                               ; preds = %52
  %62 = load ptr, ptr %7, align 8
  %63 = call zeroext i1 @ws_basestrtou32(ptr noundef %62, ptr noundef null, ptr noundef %8, i32 noundef 10)
  br i1 %63, label %68, label %64

64:                                               ; preds = %61
  %65 = load ptr, ptr %5, align 8
  %66 = load i32, ptr %6, align 4
  %67 = load ptr, ptr %7, align 8
  call void (ptr, i32, ptr, ...) @print_err(ptr noundef %65, i32 noundef %66, ptr noundef @.str.59, ptr noundef %67)
  store i32 1, ptr %10, align 4
  br label %114

68:                                               ; preds = %61
  %69 = load i32, ptr %8, align 4
  %70 = and i32 %69, 128
  %71 = icmp ne i32 %70, 0
  br i1 %71, label %72, label %73

72:                                               ; preds = %68
  store i32 2, ptr %9, align 4
  br label %104

73:                                               ; preds = %68
  %74 = load i32, ptr %8, align 4
  %75 = and i32 %74, 64
  %76 = icmp ne i32 %75, 0
  br i1 %76, label %77, label %78

77:                                               ; preds = %73
  store i32 3, ptr %9, align 4
  br label %103

78:                                               ; preds = %73
  %79 = load i32, ptr %8, align 4
  %80 = and i32 %79, 32
  %81 = icmp ne i32 %80, 0
  br i1 %81, label %82, label %83

82:                                               ; preds = %78
  store i32 4, ptr %9, align 4
  br label %102

83:                                               ; preds = %78
  %84 = load i32, ptr %8, align 4
  %85 = and i32 %84, 16
  %86 = icmp ne i32 %85, 0
  br i1 %86, label %87, label %88

87:                                               ; preds = %83
  store i32 5, ptr %9, align 4
  br label %101

88:                                               ; preds = %83
  %89 = load i32, ptr %8, align 4
  %90 = and i32 %89, 8
  %91 = icmp ne i32 %90, 0
  br i1 %91, label %92, label %93

92:                                               ; preds = %88
  store i32 6, ptr %9, align 4
  br label %100

93:                                               ; preds = %88
  %94 = load i32, ptr %8, align 4
  %95 = and i32 %94, 4
  %96 = icmp ne i32 %95, 0
  br i1 %96, label %97, label %98

97:                                               ; preds = %93
  store i32 7, ptr %9, align 4
  br label %99

98:                                               ; preds = %93
  store i32 0, ptr %9, align 4
  br label %99

99:                                               ; preds = %98, %97
  br label %100

100:                                              ; preds = %99, %92
  br label %101

101:                                              ; preds = %100, %87
  br label %102

102:                                              ; preds = %101, %82
  br label %103

103:                                              ; preds = %102, %77
  br label %104

104:                                              ; preds = %103, %72
  %105 = load i32, ptr %9, align 4
  %106 = icmp eq i32 %105, 0
  br i1 %106, label %107, label %111

107:                                              ; preds = %104
  %108 = load ptr, ptr %5, align 8
  %109 = load i32, ptr %6, align 4
  %110 = load ptr, ptr %7, align 8
  call void (ptr, i32, ptr, ...) @print_err(ptr noundef %108, i32 noundef %109, ptr noundef @.str.60, ptr noundef %110)
  store i32 1, ptr %10, align 4
  br label %114

111:                                              ; preds = %104
  %112 = load i32, ptr %9, align 4
  %113 = call i32 @ws_log_set_level(i32 noundef %112)
  store i32 0, ptr %10, align 4
  br label %114

114:                                              ; preds = %111, %107, %64, %58, %50, %33, %15
  call void @llvm.lifetime.end.p0(i64 4, ptr %9) #19
  call void @llvm.lifetime.end.p0(i64 4, ptr %8) #19
  call void @llvm.lifetime.end.p0(i64 8, ptr %7) #19
  %115 = load i32, ptr %10, align 4
  switch i32 %115, label %117 [
    i32 0, label %116
    i32 1, label %116
  ]

116:                                              ; preds = %114, %114
  ret void

117:                                              ; preds = %114
  unreachable
}