; Function Attrs: null_pointer_is_valid sspstrong uwtable
define internal fastcc void @parse_console_compat_option(ptr noundef readonly captures(none) %0, ptr noundef captures(address_is_null) %1, i32 noundef %2) unnamed_addr #1 {
  %4 = alloca i32, align 4
  call void @llvm.lifetime.start.p0(i64 4, ptr nonnull %4) #23
  %5 = load ptr, ptr %0, align 8
  %6 = icmp eq ptr %5, null
  br i1 %6, label %ws_log_set_level.exit, label %sub_0

sub_0:                                            ; preds = %3
  %7 = load i8, ptr %5, align 1
  %.not35 = icmp eq i8 %7, 45
  br i1 %.not35, label %sub_1, label %.tail.thread

sub_1:                                            ; preds = %sub_0
  %8 = getelementptr inbounds nuw i8, ptr %5, i64 1
  %9 = load i8, ptr %8, align 1
  %.not36 = icmp eq i8 %9, 111
  br i1 %.not36, label %.tail, label %.tail.thread

.tail:                                            ; preds = %sub_1
  %10 = getelementptr inbounds nuw i8, ptr %5, i64 2
  %11 = load i8, ptr %10, align 1
  %12 = icmp eq i8 %11, 0
  br i1 %12, label %13, label %.tail.thread

13:                                               ; preds = %.tail
  %14 = getelementptr i8, ptr %0, i64 8
  %15 = load ptr, ptr %14, align 8
  %16 = icmp eq ptr %15, null
  br i1 %16, label %ws_log_set_level.exit, label %17

17:                                               ; preds = %13
  %18 = tail call i32 @g_str_has_prefix(ptr noundef nonnull %15, ptr noundef nonnull @.str.55)
  %.not22 = icmp eq i32 %18, 0
  br i1 %.not22, label %ws_log_set_level.exit, label %19

19:                                               ; preds = %17
  %20 = load ptr, ptr %14, align 8
  %21 = getelementptr i8, ptr %20, i64 18
  br label %26

.tail.thread:                                     ; preds = %sub_1, %sub_0, %.tail
  %22 = tail call i32 @g_str_has_prefix(ptr noundef nonnull %5, ptr noundef nonnull @.str.56)
  %.not = icmp eq i32 %22, 0
  br i1 %.not, label %ws_log_set_level.exit, label %23

23:                                               ; preds = %.tail.thread
  %24 = load ptr, ptr %0, align 8
  %25 = getelementptr i8, ptr %24, i64 20
  br label %26

26:                                               ; preds = %23, %19
  %.019 = phi ptr [ %21, %19 ], [ %25, %23 ]
  tail call void (ptr, i32, ptr, ...) @print_err(ptr noundef %1, i32 noundef -1, ptr noundef nonnull @.str.57)
  %27 = load i8, ptr %.019, align 1
  %28 = icmp eq i8 %27, 0
  br i1 %28, label %29, label %30

29:                                               ; preds = %26
  tail call void (ptr, i32, ptr, ...) @print_err(ptr noundef %1, i32 noundef %2, ptr noundef nonnull @.str.58)
  br label %ws_log_set_level.exit

30:                                               ; preds = %26
  %31 = call zeroext i1 @ws_basestrtou32(ptr noundef %.019, ptr noundef null, ptr noundef nonnull %4, i32 noundef 10)
  br i1 %31, label %33, label %32

32:                                               ; preds = %30
  call void (ptr, i32, ptr, ...) @print_err(ptr noundef %1, i32 noundef %2, ptr noundef nonnull @.str.59, ptr noundef %.019)
  br label %ws_log_set_level.exit

33:                                               ; preds = %30
  %34 = load i32, ptr %4, align 4
  %35 = and i32 %34, 128
  %.not23 = icmp eq i32 %35, 0
  br i1 %.not23, label %36, label %.thread.thread

36:                                               ; preds = %33
  %37 = and i32 %34, 64
  %.not24 = icmp eq i32 %37, 0
  br i1 %.not24, label %38, label %.thread.thread

38:                                               ; preds = %36
  %39 = and i32 %34, 32
  %.not25 = icmp eq i32 %39, 0
  br i1 %.not25, label %40, label %.thread.thread

40:                                               ; preds = %38
  %41 = and i32 %34, 16
  %.not26 = icmp eq i32 %41, 0
  br i1 %.not26, label %42, label %.thread.thread

42:                                               ; preds = %40
  %43 = and i32 %34, 8
  %.not27 = icmp eq i32 %43, 0
  br i1 %.not27, label %44, label %.thread.thread

44:                                               ; preds = %42
  %45 = and i32 %34, 4
  %.not28 = icmp eq i32 %45, 0
  br i1 %.not28, label %46, label %.thread.thread

46:                                               ; preds = %44
  call void (ptr, i32, ptr, ...) @print_err(ptr noundef %1, i32 noundef %2, ptr noundef nonnull @.str.60, ptr noundef %.019)
  br label %ws_log_set_level.exit

.thread.thread:                                   ; preds = %44, %33, %36, %38, %40, %42
  %.03134 = phi i32 [ 2, %33 ], [ 3, %36 ], [ 4, %38 ], [ 5, %40 ], [ 6, %42 ], [ 7, %44 ]
  %spec.store.select.i = call i32 @llvm.umin.i32(i32 %.03134, i32 6)
  store i32 %spec.store.select.i, ptr @current_log_level, align 4
  br label %ws_log_set_level.exit

ws_log_set_level.exit:                            ; preds = %.thread.thread, %.tail.thread, %13, %17, %3, %46, %32, %29
  call void @llvm.lifetime.end.p0(i64 4, ptr nonnull %4) #23
  ret void
}